; Function Attrs: nounwind uwtable
define internal noundef i32 @config_input(ptr noundef readonly captures(none) %0) #0 {
  %2 = getelementptr inbounds nuw i8, ptr %0, i64 16
  %3 = load ptr, ptr %2, align 8, !tbaa !9
  %4 = getelementptr inbounds nuw i8, ptr %3, i64 72
  %5 = load ptr, ptr %4, align 8, !tbaa !21
  %6 = getelementptr inbounds nuw i8, ptr %0, i64 36
  %7 = load i32, ptr %6, align 4, !tbaa !78
  %8 = tail call ptr @av_pix_fmt_desc_get(i32 noundef %7) #7
  %9 = getelementptr inbounds nuw i8, ptr %8, i64 9
  %10 = load i8, ptr %9, align 1, !tbaa !79
  %11 = zext i8 %10 to i32
  %12 = getelementptr inbounds nuw i8, ptr %5, i64 20
  store i32 %11, ptr %12, align 4, !tbaa !43
  %13 = getelementptr inbounds nuw i8, ptr %8, i64 10
  %14 = load i8, ptr %13, align 2, !tbaa !81
  %15 = zext i8 %14 to i32
  %16 = getelementptr inbounds nuw i8, ptr %5, i64 24
  store i32 %15, ptr %16, align 8, !tbaa !45
  ret i32 0
}